; Function Attrs: mustprogress uwtable
define internal fastcc void @_ZN5faissL33write_ProductLocalSearchQuantizerEPKNS_27ProductLocalSearchQuantizerEPNS_8IOWriterE(ptr noundef %0, ptr noundef %1) unnamed_addr #3 {
  tail call fastcc void @_ZN5faissL30write_ProductAdditiveQuantizerEPKNS_24ProductAdditiveQuantizerEPNS_8IOWriterE(ptr noundef %0, ptr noundef %1)
  %3 = getelementptr inbounds i8, ptr %0, i64 320
  %4 = load ptr, ptr %3, align 8
  %5 = getelementptr inbounds i8, ptr %0, i64 328
  %6 = load ptr, ptr %5, align 8
  %.not11 = icmp eq ptr %4, %6
  br i1 %.not11, label %._crit_edge, label %.lr.ph

.lr.ph:                                           ; preds = %2, %11
  %.sroa.08.012 = phi ptr [ %13, %11 ], [ %4, %2 ]
  %7 = load ptr, ptr %.sroa.08.012, align 8
  %8 = icmp eq ptr %7, null
  br i1 %8, label %11, label %9

9:                                                ; preds = %.lr.ph
  %10 = tail call ptr @__dynamic_cast(ptr nonnull %7, ptr nonnull @_ZTIN5faiss17AdditiveQuantizerE, ptr nonnull @_ZTIN5faiss20LocalSearchQuantizerE, i64 0) #18
  br label %11

11:                                               ; preds = %.lr.ph, %9
  %12 = phi ptr [ %10, %9 ], [ null, %.lr.ph ]
  tail call fastcc void @_ZN5faissL26write_LocalSearchQuantizerEPKNS_20LocalSearchQuantizerEPNS_8IOWriterE(ptr noundef %12, ptr noundef %1)
  %13 = getelementptr inbounds i8, ptr %.sroa.08.012, i64 8
  %.not = icmp eq ptr %13, %6
  br i1 %.not, label %._crit_edge, label %.lr.ph

._crit_edge:                                      ; preds = %11, %2
  ret void
}